(dp1
(Vnewv2ex
p2
S'retry'
p3
tp4
ccopy_reg
_reconstructor
p5
(cpyspider.libs.counter
TimebaseAverageWindowCounter
p6
c__builtin__
object
p7
NtRp8
(dp9
S'_first_data_time'
p10
F1472751724.6059999
sS'window_size'
p11
F24.299266668160758
sS'times'
p12
ccollections
deque
p13
((lp14
F1472751724.6059999
aI60
tRp15
sS'window_interval'
p16
I60
sS'values'
p17
g13
((lp18
I2
aI60
tRp19
sS'cache_value'
p20
I0
sS'max_window_size'
p21
I60
sS'cache_start'
p22
Nsbs(Vnewv2ex
p23
S'success'
p24
tp25
g5
(g6
g7
NtRp26
(dp27
g10
F1472751202.3080001
sg11
F33.004233332475025
sg12
g13
((lp28
F1472751202.3080001
aF1472751263.1429999
aF1472751346.221
aF1472751416.0350001
aF1472751476.586
aF1472751547.049
aF1472751616.0079999
aF1472751683.9760001
aF1472751745.4489999
aF1472751880.6240001
aF1472752607.365
aF1472752796.5020001
aI60
tRp29
sg16
I60
sg17
g13
((lp30
I6
aI2
aI7
aI3
aI7
aI6
aI3
aI5
aI2
aI1
aI2
aI3
aI60
tRp31
sg20
I0
sg21
I60
sg22
Nsbs(Vzhihu
p32
g24
tp33
g5
(g6
g7
NtRp34
(dp35
g10
F1472751029.0079999
sg11
F35.892566668987271
sg12
g13
((lp36
F1472751029.0079999
aF1472751101.1570001
aF1472751161.5569999
aF1472751711.494
aF1472751781.6389999
aF1472751852.3150001
aF1472751912.605
aF1472751972.8959999
aF1472752042.904
aF1472752103.9319999
aF1472752164.0239999
aF1472752224.572
aF1472752284.7479999
aF1472752345.5669999
aF1472752405.7320001
aI60
tRp37
sg16
I60
sg17
g13
((lp38
I11
aI6
aI1
aI7
aI7
aI6
aI6
aI7
aI6
aI6
aI6
aI6
aI6
aI6
aI4
aI60
tRp39
sg20
I4
sg21
I60
sg22
F1472753148.882
sbs(S'zhihu'
p40
S'pending'
p41
tp42
g5
(g6
g7
NtRp43
(dp44
g10
F1472751028.701
sg11
F35.897683334350589
sg12
g13
((lp45
F1472751028.701
aF1472751101.855
aF1472752032.885
aF1472752244.2869999
aI60
tRp46
sg16
I60
sg17
g13
((lp47
I59
aI1
aI21
aI21
aI60
tRp48
sg20
I15
sg21
I60
sg22
F1472753149.0139999
sbs(S'newv2ex'
p49
g41
tp50
g5
(g6
g7
NtRp51
(dp52
g10
F1472751201.9430001
sg11
F33.010316665967302
sg12
g13
((lp53
F1472751201.9430001
aF1472751348.325
aF1472751482.3959999
aF1472751880.2049999
aF1472752606.914
aF1472752795.8210001
aI60
tRp54
sg16
I60
sg17
g13
((lp55
I39
aI2
aI1
aI1
aI2
aI3
aI60
tRp56
sg20
I0
sg21
I60
sg22
Nsbs.