(dp1
(Vnewv2ex
p2
S'retry'
p3
tp4
ccopy_reg
_reconstructor
p5
(cpyspider.libs.counter
TimebaseAverageWindowCounter
p6
c__builtin__
object
p7
NtRp8
(dp9
S'_first_data_time'
p10
F1472751724.6059999
sS'window_size'
p11
F10.124715278546015
sS'times'
p12
ccollections
deque
p13
((lp14
F1472751724.6059999
aI600
tRp15
sS'window_interval'
p16
I144
sS'values'
p17
g13
((lp18
I2
aI600
tRp19
sS'cache_value'
p20
I0
sS'max_window_size'
p21
I600
sS'cache_start'
p22
Nsbs(Vnewv2ex
p23
S'success'
p24
tp25
g5
(g6
g7
NtRp26
(dp27
g10
F1472751202.3080001
sg11
F13.751784722010294
sg12
g13
((lp28
F1472751202.3080001
aF1472751354.7880001
aF1472751506.5639999
aF1472751683.9760001
aF1472751880.6240001
aF1472752607.365
aF1472752796.5020001
aI600
tRp29
sg16
I144
sg17
g13
((lp30
I9
aI12
aI13
aI7
aI1
aI2
aI3
aI600
tRp31
sg20
I0
sg21
I600
sg22
Nsbs(Vzhihu
p32
g24
tp33
g5
(g6
g7
NtRp34
(dp35
g10
F1472751029.0079999
sg11
F14.955256945557064
sg12
g13
((lp36
F1472751029.0079999
aF1472751711.494
aF1472751861.664
aF1472752012.507
aF1472752164.0239999
aF1472752315.1800001
aI600
tRp37
sg16
I144
sg17
g13
((lp38
I18
aI15
aI15
aI15
aI15
aI13
aI600
tRp39
sg20
I4
sg21
I600
sg22
F1472753148.882
sbs(S'zhihu'
p40
S'pending'
p41
tp42
g5
(g6
g7
NtRp43
(dp44
g10
F1472751028.701
sg11
F14.957388889458445
sg12
g13
((lp45
F1472751028.701
aF1472752032.885
aF1472752244.2869999
aI600
tRp46
sg16
I144
sg17
g13
((lp47
I60
aI21
aI21
aI600
tRp48
sg20
I15
sg21
I600
sg22
F1472753149.0139999
sbs(S'newv2ex'
p49
g41
tp50
g5
(g6
g7
NtRp51
(dp52
g10
F1472751201.9430001
sg11
F13.754319444298744
sg12
g13
((lp53
F1472751201.9430001
aF1472751348.325
aF1472751880.2049999
aF1472752606.914
aF1472752795.8210001
aI600
tRp54
sg16
I144
sg17
g13
((lp55
I39
aI3
aI1
aI2
aI3
aI600
tRp56
sg20
I0
sg21
I600
sg22
Nsbs.