(dp1
(Vzhihu
p2
S'success'
p3
tp4
ccopy_reg
_reconstructor
p5
(cpyspider.libs.counter
TotalCounter
p6
c__builtin__
object
p7
NtRp8
(dp9
S'cnt'
p10
I93
sbs(Vzhihu
S'pending'
p11
tp12
g5
(g6
g7
NtRp13
(dp14
g10
I22
sbs(Vnewv2ex
g11
tp15
g5
(g6
g7
NtRp16
(dp17
g10
I1
sbs(Vnewv2ex
g3
tp18
g5
(g6
g7
NtRp19
(dp20
g10
I39
sbs.